; Function Attrs: nounwind uwtable
define zeroext i8 @l_Std_Sat_AIG_toCNF_cnfSatAssignment___lambda__1(ptr noundef %0, ptr noundef %1, ptr noundef %2) local_unnamed_addr #0 {
  tail call void @lean_inc_heartbeat() #3
  %4 = tail call noalias ptr @mi_malloc_small(i64 noundef 24) #3
  %5 = icmp eq ptr %4, null
  br i1 %5, label %6, label %lean_alloc_ctor.exit

6:                                                ; preds = %3
  tail call void @lean_internal_panic_out_of_memory() #4
  unreachable

lean_alloc_ctor.exit:                             ; preds = %3
  %7 = getelementptr inbounds nuw i8, ptr %4, i64 4
  %8 = getelementptr i8, ptr %4, i64 16
  store i64 0, ptr %8, align 8, !tbaa !15
  store i32 1, ptr %4, align 4, !tbaa !4
  store i32 65560, ptr %7, align 4
  %9 = getelementptr inbounds nuw i8, ptr %4, i64 8
  store ptr %2, ptr %9, align 8, !tbaa !9
  tail call void @lean_inc_heartbeat() #3
  %10 = tail call noalias ptr @mi_malloc_small(i64 noundef 24) #3
  %11 = icmp eq ptr %10, null
  br i1 %11, label %12, label %lean_alloc_ctor.exit11

12:                                               ; preds = %lean_alloc_ctor.exit
  tail call void @lean_internal_panic_out_of_memory() #4
  unreachable

lean_alloc_ctor.exit11:                           ; preds = %lean_alloc_ctor.exit
  %13 = getelementptr inbounds nuw i8, ptr %10, i64 4
  store i32 1, ptr %10, align 4, !tbaa !4
  store i32 131096, ptr %13, align 4
  %14 = getelementptr inbounds nuw i8, ptr %10, i64 8
  store ptr %0, ptr %14, align 8, !tbaa !9
  %15 = getelementptr inbounds nuw i8, ptr %10, i64 16
  store ptr %4, ptr %15, align 8, !tbaa !9
  %16 = getelementptr inbounds nuw i8, ptr %0, i64 8
  %17 = load ptr, ptr %16, align 8, !tbaa !9
  %18 = tail call ptr @l_Std_Sat_AIG_denote_go___rarg(ptr noundef %2, ptr noundef %17, ptr noundef %1, ptr noundef nonnull inttoptr (i64 1 to ptr), ptr noundef nonnull inttoptr (i64 1 to ptr)) #3
  %19 = ptrtoint ptr %18 to i64
  %20 = and i64 %19, 1
  %.not.i12 = icmp eq i64 %20, 0
  br i1 %.not.i12, label %21, label %l_Std_Sat_AIG_denote___at_Std_Sat_AIG_toCNF_cnfSatAssignment___spec__1.exit

21:                                               ; preds = %lean_alloc_ctor.exit11
  %22 = load i32, ptr %18, align 4, !tbaa !4
  %23 = icmp sgt i32 %22, 1
  br i1 %23, label %24, label %26, !prof !13

24:                                               ; preds = %21
  %25 = add nsw i32 %22, -1
  store i32 %25, ptr %18, align 4, !tbaa !4
  br label %l_Std_Sat_AIG_denote___at_Std_Sat_AIG_toCNF_cnfSatAssignment___spec__1.exit

26:                                               ; preds = %21
  %.not.i.i = icmp eq i32 %22, 0
  br i1 %.not.i.i, label %l_Std_Sat_AIG_denote___at_Std_Sat_AIG_toCNF_cnfSatAssignment___spec__1.exit, label %27

27:                                               ; preds = %26
  tail call void @lean_dec_ref_cold(ptr noundef nonnull %18) #3
  br label %l_Std_Sat_AIG_denote___at_Std_Sat_AIG_toCNF_cnfSatAssignment___spec__1.exit

l_Std_Sat_AIG_denote___at_Std_Sat_AIG_toCNF_cnfSatAssignment___spec__1.exit: ; preds = %lean_alloc_ctor.exit11, %24, %26, %27
  %.val.i = load i8, ptr %8, align 1, !tbaa !14
  %28 = ptrtoint ptr %10 to i64
  %29 = and i64 %28, 1
  %.not = icmp eq i64 %29, 0
  br i1 %.not, label %30, label %lean_dec.exit

30:                                               ; preds = %l_Std_Sat_AIG_denote___at_Std_Sat_AIG_toCNF_cnfSatAssignment___spec__1.exit
  %31 = load i32, ptr %10, align 4, !tbaa !4
  %32 = icmp sgt i32 %31, 1
  br i1 %32, label %33, label %35, !prof !13

33:                                               ; preds = %30
  %34 = add nsw i32 %31, -1
  store i32 %34, ptr %10, align 4, !tbaa !4
  br label %lean_dec.exit

35:                                               ; preds = %30
  %.not.i = icmp eq i32 %31, 0
  br i1 %.not.i, label %lean_dec.exit, label %36

36:                                               ; preds = %35
  tail call void @lean_dec_ref_cold(ptr noundef nonnull %10) #3
  br label %lean_dec.exit

lean_dec.exit:                                    ; preds = %36, %35, %33, %l_Std_Sat_AIG_denote___at_Std_Sat_AIG_toCNF_cnfSatAssignment___spec__1.exit
  %37 = and i64 %19, 510
  %38 = icmp eq i64 %37, 0
  %39 = icmp eq i8 %.val.i, 0
  %..i = zext i1 %39 to i8
  %.0.i = select i1 %38, i8 %.val.i, i8 %..i
  ret i8 %.0.i
}